target datalayout = "e-m:e-p270:32:32-p271:32:32-p272:64:64-i64:64-i128:128-f80:128-n8:16:32:64-S128"
target triple = "x86_64-pc-linux-gnu"

@.str.49 = private unnamed_addr constant [2 x i8] c"\09\00", align 1
@stdout = external global ptr, align 8
@.str.50 = private unnamed_addr constant [2 x i8] c"\0A\00", align 1

; Function Attrs: nounwind uwtable
define internal i32 @luaB_print(ptr noundef %0) #0 {
  %2 = alloca ptr, align 8
  %3 = alloca i32, align 4
  %4 = alloca i32, align 4
  %5 = alloca i64, align 8
  %6 = alloca ptr, align 8
  store ptr %0, ptr %2, align 8, !tbaa !4
  call void @llvm.lifetime.start.p0(i64 4, ptr %3) #6
  %7 = load ptr, ptr %2, align 8, !tbaa !4
  %8 = call i32 @lua_gettop(ptr noundef %7)
  store i32 %8, ptr %3, align 4, !tbaa !10
  call void @llvm.lifetime.start.p0(i64 4, ptr %4) #6
  store i32 1, ptr %4, align 4, !tbaa !10
  br label %9

9:                                                ; preds = %28, %1
  %10 = load i32, ptr %4, align 4, !tbaa !10
  %11 = load i32, ptr %3, align 4, !tbaa !10
  %12 = icmp sle i32 %10, %11
  br i1 %12, label %13, label %31

13:                                               ; preds = %9
  call void @llvm.lifetime.start.p0(i64 8, ptr %5) #6
  call void @llvm.lifetime.start.p0(i64 8, ptr %6) #6
  %14 = load ptr, ptr %2, align 8, !tbaa !4
  %15 = load i32, ptr %4, align 4, !tbaa !10
  %16 = call ptr @luaL_tolstring(ptr noundef %14, i32 noundef %15, ptr noundef %5)
  store ptr %16, ptr %6, align 8, !tbaa !14
  %17 = load i32, ptr %4, align 4, !tbaa !10
  %18 = icmp sgt i32 %17, 1
  br i1 %18, label %19, label %22

19:                                               ; preds = %13
  %20 = load ptr, ptr @stdout, align 8, !tbaa !18
  %21 = call i64 @fwrite(ptr noundef @.str.49, i64 noundef 1, i64 noundef 1, ptr noundef %20)
  br label %22

22:                                               ; preds = %19, %13
  %23 = load ptr, ptr %6, align 8, !tbaa !14
  %24 = load i64, ptr %5, align 8, !tbaa !16
  %25 = load ptr, ptr @stdout, align 8, !tbaa !18
  %26 = call i64 @fwrite(ptr noundef %23, i64 noundef 1, i64 noundef %24, ptr noundef %25)
  %27 = load ptr, ptr %2, align 8, !tbaa !4
  call void @lua_settop(ptr noundef %27, i32 noundef -2)
  call void @llvm.lifetime.end.p0(i64 8, ptr %6) #6
  call void @llvm.lifetime.end.p0(i64 8, ptr %5) #6
  br label %28

28:                                               ; preds = %22
  %29 = load i32, ptr %4, align 4, !tbaa !10
  %30 = add nsw i32 %29, 1
  store i32 %30, ptr %4, align 4, !tbaa !10
  br label %9

31:                                               ; preds = %9
  %32 = load ptr, ptr @stdout, align 8, !tbaa !18
  %33 = call i64 @fwrite(ptr noundef @.str.50, i64 noundef 1, i64 noundef 1, ptr noundef %32)
  %34 = load ptr, ptr @stdout, align 8, !tbaa !18
  %35 = call i32 @fflush(ptr noundef %34)
  call void @llvm.lifetime.end.p0(i64 4, ptr %4) #6
  call void @llvm.lifetime.end.p0(i64 4, ptr %3) #6
  ret i32 0
}